   1              		.cpu arm7tdmi
   2              		.fpu softvfp
   3              		.eabi_attribute 20, 1
   4              		.eabi_attribute 21, 1
   5              		.eabi_attribute 23, 3
   6              		.eabi_attribute 24, 1
   7              		.eabi_attribute 25, 1
   8              		.eabi_attribute 26, 1
   9              		.eabi_attribute 30, 6
  10              		.eabi_attribute 18, 4
  11              		.file	"pbs.c"
  21              	.Ltext0:
  22              		.file 1 "../src/pbs.c"
 1917              		.align	2
 1918              		.global	pbs_init
 1920              	pbs_init:
 1921              	.LFB0:
   1:../src/pbs.c  **** #include <s3c44b0x.h>
   2:../src/pbs.c  **** #include <s3cev40.h>
   3:../src/pbs.c  **** #include <pbs.h>
   4:../src/pbs.c  **** #include <timers.h>
   5:../src/pbs.c  **** 
   6:../src/pbs.c  **** extern void isr_PB_dummy( void );
   7:../src/pbs.c  **** 
   8:../src/pbs.c  **** void pbs_init( void )
   9:../src/pbs.c  **** {
 1922              		.loc 1 9 0
 1923              		.cfi_startproc
 1924              		@ Function supports interworking.
 1925              		@ args = 0, pretend = 0, frame = 0
 1926              		@ frame_needed = 1, uses_anonymous_args = 0
 1927 0000 0DC0A0E1 		mov	ip, sp
 1928              	.LCFI0:
 1929              		.cfi_def_cfa_register 12
 1930 0004 00D82DE9 		stmfd	sp!, {fp, ip, lr, pc}
 1931 0008 04B04CE2 		sub	fp, ip, #4
 1932              		.cfi_offset 14, -8
 1933              		.cfi_offset 13, -12
 1934              		.cfi_offset 11, -16
 1935              	.LCFI1:
 1936              		.cfi_def_cfa 11, 4
  10:../src/pbs.c  ****     timers_init();
 1937              		.loc 1 10 0
 1938 000c FEFFFFEB 		bl	timers_init
  11:../src/pbs.c  **** }
 1939              		.loc 1 11 0
 1940 0010 0CD04BE2 		sub	sp, fp, #12
 1941 0014 00689DE8 		ldmfd	sp, {fp, sp, lr}
 1942 0018 1EFF2FE1 		bx	lr
 1943              		.cfi_endproc
 1944              	.LFE0:
 1946              		.align	2
 1947              		.global	pb_scan
 1949              	pb_scan:
 1950              	.LFB1:
  12:../src/pbs.c  **** 
  13:../src/pbs.c  **** uint8 pb_scan( void )
  14:../src/pbs.c  **** {
 1951              		.loc 1 14 0
 1952              		.cfi_startproc
 1953              		@ Function supports interworking.
 1954              		@ args = 0, pretend = 0, frame = 0
 1955              		@ frame_needed = 1, uses_anonymous_args = 0
 1956 001c 0DC0A0E1 		mov	ip, sp
 1957              	.LCFI2:
 1958              		.cfi_def_cfa_register 12
 1959 0020 00D82DE9 		stmfd	sp!, {fp, ip, lr, pc}
 1960 0024 04B04CE2 		sub	fp, ip, #4
 1961              		.cfi_offset 14, -8
 1962              		.cfi_offset 13, -12
 1963              		.cfi_offset 11, -16
 1964              	.LCFI3:
 1965              		.cfi_def_cfa 11, 4
  15:../src/pbs.c  ****     if( pb_status(PB_LEFT) == PB_DOWN )
 1966              		.loc 1 15 0
 1967 0028 4000A0E3 		mov	r0, #64
 1968 002c FEFFFFEB 		bl	pb_status
 1969 0030 0030A0E1 		mov	r3, r0
 1970 0034 010053E3 		cmp	r3, #1
 1971 0038 0100001A 		bne	.L3
  16:../src/pbs.c  ****         return PB_LEFT;
 1972              		.loc 1 16 0
 1973 003c 4030A0E3 		mov	r3, #64
 1974 0040 070000EA 		b	.L4
 1975              	.L3:
  17:../src/pbs.c  ****     else if( pb_status(PB_RIGHT) == PB_DOWN )
 1976              		.loc 1 17 0
 1977 0044 8000A0E3 		mov	r0, #128
 1978 0048 FEFFFFEB 		bl	pb_status
 1979 004c 0030A0E1 		mov	r3, r0
 1980 0050 010053E3 		cmp	r3, #1
 1981 0054 0100001A 		bne	.L5
  18:../src/pbs.c  ****         return PB_RIGHT;
 1982              		.loc 1 18 0
 1983 0058 8030A0E3 		mov	r3, #128
 1984 005c 000000EA 		b	.L4
 1985              	.L5:
  19:../src/pbs.c  ****     else
  20:../src/pbs.c  ****         return PB_FAILURE;
 1986              		.loc 1 20 0
 1987 0060 FF30A0E3 		mov	r3, #255
 1988              	.L4:
  21:../src/pbs.c  **** }
 1989              		.loc 1 21 0
 1990 0064 0300A0E1 		mov	r0, r3
 1991 0068 0CD04BE2 		sub	sp, fp, #12
 1992 006c 00689DE8 		ldmfd	sp, {fp, sp, lr}
 1993 0070 1EFF2FE1 		bx	lr
 1994              		.cfi_endproc
 1995              	.LFE1:
 1997              		.align	2
 1998              		.global	pb_status
 2000              	pb_status:
 2001              	.LFB2:
  22:../src/pbs.c  **** 
  23:../src/pbs.c  **** uint8 pb_status( uint8 scancode )
  24:../src/pbs.c  **** {
 2002              		.loc 1 24 0
 2003              		.cfi_startproc
 2004              		@ Function supports interworking.
 2005              		@ args = 0, pretend = 0, frame = 8
 2006              		@ frame_needed = 1, uses_anonymous_args = 0
 2007 0074 0DC0A0E1 		mov	ip, sp
 2008              	.LCFI4:
 2009              		.cfi_def_cfa_register 12
 2010 0078 00D82DE9 		stmfd	sp!, {fp, ip, lr, pc}
 2011 007c 04B04CE2 		sub	fp, ip, #4
 2012              		.cfi_offset 14, -8
 2013              		.cfi_offset 13, -12
 2014              		.cfi_offset 11, -16
 2015              	.LCFI5:
 2016              		.cfi_def_cfa 11, 4
 2017 0080 08D04DE2 		sub	sp, sp, #8
 2018 0084 0030A0E1 		mov	r3, r0
 2019 0088 0D304BE5 		strb	r3, [fp, #-13]
  25:../src/pbs.c  ****     if( (scancode & PDATG) == 0 )
 2020              		.loc 1 25 0
 2021 008c 0D205BE5 		ldrb	r2, [fp, #-13]	@ zero_extendqisi2
 2022 0090 28309FE5 		ldr	r3, .L9
 2023 0094 003093E5 		ldr	r3, [r3, #0]
 2024 0098 033002E0 		and	r3, r2, r3
 2025 009c 000053E3 		cmp	r3, #0
 2026 00a0 0100001A 		bne	.L7
  26:../src/pbs.c  ****         return PB_DOWN;
 2027              		.loc 1 26 0
 2028 00a4 0130A0E3 		mov	r3, #1
 2029 00a8 000000EA 		b	.L8
 2030              	.L7:
  27:../src/pbs.c  ****     else
  28:../src/pbs.c  ****         return PB_UP;
 2031              		.loc 1 28 0
 2032 00ac 0030A0E3 		mov	r3, #0
 2033              	.L8:
  29:../src/pbs.c  ****     
  30:../src/pbs.c  **** }
 2034              		.loc 1 30 0
 2035 00b0 0300A0E1 		mov	r0, r3
 2036 00b4 0CD04BE2 		sub	sp, fp, #12
 2037 00b8 00689DE8 		ldmfd	sp, {fp, sp, lr}
 2038 00bc 1EFF2FE1 		bx	lr
 2039              	.L10:
 2040              		.align	2
 2041              	.L9:
 2042 00c0 4400D201 		.word	30539844
 2043              		.cfi_endproc
 2044              	.LFE2:
 2046              		.align	2
 2047              		.global	pb_wait_keydown
 2049              	pb_wait_keydown:
 2050              	.LFB3:
  31:../src/pbs.c  **** 
  32:../src/pbs.c  **** void pb_wait_keydown( uint8 scancode )
  33:../src/pbs.c  **** {
 2051              		.loc 1 33 0
 2052              		.cfi_startproc
 2053              		@ Function supports interworking.
 2054              		@ args = 0, pretend = 0, frame = 8
 2055              		@ frame_needed = 1, uses_anonymous_args = 0
 2056 00c4 0DC0A0E1 		mov	ip, sp
 2057              	.LCFI6:
 2058              		.cfi_def_cfa_register 12
 2059 00c8 00D82DE9 		stmfd	sp!, {fp, ip, lr, pc}
 2060 00cc 04B04CE2 		sub	fp, ip, #4
 2061              		.cfi_offset 14, -8
 2062              		.cfi_offset 13, -12
 2063              		.cfi_offset 11, -16
 2064              	.LCFI7:
 2065              		.cfi_def_cfa 11, 4
 2066 00d0 08D04DE2 		sub	sp, sp, #8
 2067 00d4 0030A0E1 		mov	r3, r0
 2068 00d8 0D304BE5 		strb	r3, [fp, #-13]
  34:../src/pbs.c  ****     while( (PDATG & scancode) != 0 );
 2069              		.loc 1 34 0
 2070 00dc 0000A0E1 		mov	r0, r0	@ nop
 2071              	.L12:
 2072              		.loc 1 34 0 is_stmt 0 discriminator 1
 2073 00e0 24309FE5 		ldr	r3, .L13
 2074 00e4 002093E5 		ldr	r2, [r3, #0]
 2075 00e8 0D305BE5 		ldrb	r3, [fp, #-13]	@ zero_extendqisi2
 2076 00ec 033002E0 		and	r3, r2, r3
 2077 00f0 000053E3 		cmp	r3, #0
 2078 00f4 F9FFFF1A 		bne	.L12
  35:../src/pbs.c  ****     sw_delay_ms( PB_KEYDOWN_DELAY ); 
 2079              		.loc 1 35 0 is_stmt 1
 2080 00f8 1E00A0E3 		mov	r0, #30
 2081 00fc FEFFFFEB 		bl	sw_delay_ms
  36:../src/pbs.c  **** }
 2082              		.loc 1 36 0
 2083 0100 0CD04BE2 		sub	sp, fp, #12
 2084 0104 00689DE8 		ldmfd	sp, {fp, sp, lr}
 2085 0108 1EFF2FE1 		bx	lr
 2086              	.L14:
 2087              		.align	2
 2088              	.L13:
 2089 010c 4400D201 		.word	30539844
 2090              		.cfi_endproc
 2091              	.LFE3:
 2093              		.align	2
 2094              		.global	pb_wait_keyup
 2096              	pb_wait_keyup:
 2097              	.LFB4:
  37:../src/pbs.c  **** 
  38:../src/pbs.c  **** void pb_wait_keyup( uint8 scancode )
  39:../src/pbs.c  **** {
 2098              		.loc 1 39 0
 2099              		.cfi_startproc
 2100              		@ Function supports interworking.
 2101              		@ args = 0, pretend = 0, frame = 8
 2102              		@ frame_needed = 1, uses_anonymous_args = 0
 2103 0110 0DC0A0E1 		mov	ip, sp
 2104              	.LCFI8:
 2105              		.cfi_def_cfa_register 12
 2106 0114 00D82DE9 		stmfd	sp!, {fp, ip, lr, pc}
 2107 0118 04B04CE2 		sub	fp, ip, #4
 2108              		.cfi_offset 14, -8
 2109              		.cfi_offset 13, -12
 2110              		.cfi_offset 11, -16
 2111              	.LCFI9:
 2112              		.cfi_def_cfa 11, 4
 2113 011c 08D04DE2 		sub	sp, sp, #8
 2114 0120 0030A0E1 		mov	r3, r0
 2115 0124 0D304BE5 		strb	r3, [fp, #-13]
  40:../src/pbs.c  **** 	 pb_wait_keydown(scancode);
 2116              		.loc 1 40 0
 2117 0128 0D305BE5 		ldrb	r3, [fp, #-13]	@ zero_extendqisi2
 2118 012c 0300A0E1 		mov	r0, r3
 2119 0130 FEFFFFEB 		bl	pb_wait_keydown
  41:../src/pbs.c  ****      while( (PDATG & scancode) == 0 );
 2120              		.loc 1 41 0
 2121 0134 0000A0E1 		mov	r0, r0	@ nop
 2122              	.L16:
 2123              		.loc 1 41 0 is_stmt 0 discriminator 1
 2124 0138 24309FE5 		ldr	r3, .L17
 2125 013c 002093E5 		ldr	r2, [r3, #0]
 2126 0140 0D305BE5 		ldrb	r3, [fp, #-13]	@ zero_extendqisi2
 2127 0144 033002E0 		and	r3, r2, r3
 2128 0148 000053E3 		cmp	r3, #0
 2129 014c F9FFFF0A 		beq	.L16
  42:../src/pbs.c  ****      sw_delay_ms( PB_KEYUP_DELAY );
 2130              		.loc 1 42 0 is_stmt 1
 2131 0150 6400A0E3 		mov	r0, #100
 2132 0154 FEFFFFEB 		bl	sw_delay_ms
  43:../src/pbs.c  **** }
 2133              		.loc 1 43 0
 2134 0158 0CD04BE2 		sub	sp, fp, #12
 2135 015c 00689DE8 		ldmfd	sp, {fp, sp, lr}
 2136 0160 1EFF2FE1 		bx	lr
 2137              	.L18:
 2138              		.align	2
 2139              	.L17:
 2140 0164 4400D201 		.word	30539844
 2141              		.cfi_endproc
 2142              	.LFE4:
 2144              		.align	2
 2145              		.global	pb_wait_any_keydown
 2147              	pb_wait_any_keydown:
 2148              	.LFB5:
  44:../src/pbs.c  **** 
  45:../src/pbs.c  **** void pb_wait_any_keydown( void )
  46:../src/pbs.c  **** {
 2149              		.loc 1 46 0
 2150              		.cfi_startproc
 2151              		@ Function supports interworking.
 2152              		@ args = 0, pretend = 0, frame = 0
 2153              		@ frame_needed = 1, uses_anonymous_args = 0
 2154 0168 0DC0A0E1 		mov	ip, sp
 2155              	.LCFI10:
 2156              		.cfi_def_cfa_register 12
 2157 016c 00D82DE9 		stmfd	sp!, {fp, ip, lr, pc}
 2158 0170 04B04CE2 		sub	fp, ip, #4
 2159              		.cfi_offset 14, -8
 2160              		.cfi_offset 13, -12
 2161              		.cfi_offset 11, -16
 2162              	.LCFI11:
 2163              		.cfi_def_cfa 11, 4
  47:../src/pbs.c  ****     while( ((PDATG & 0x40) == 0x40) && ((PDATG & 0x80) == 0x80) );
 2164              		.loc 1 47 0
 2165 0174 0000A0E1 		mov	r0, r0	@ nop
 2166              	.L21:
 2167              		.loc 1 47 0 is_stmt 0 discriminator 1
 2168 0178 34309FE5 		ldr	r3, .L22
 2169 017c 003093E5 		ldr	r3, [r3, #0]
 2170 0180 403003E2 		and	r3, r3, #64
 2171 0184 000053E3 		cmp	r3, #0
 2172 0188 0400000A 		beq	.L20
 2173              		.loc 1 47 0 discriminator 2
 2174 018c 20309FE5 		ldr	r3, .L22
 2175 0190 003093E5 		ldr	r3, [r3, #0]
 2176 0194 803003E2 		and	r3, r3, #128
 2177 0198 000053E3 		cmp	r3, #0
 2178 019c F5FFFF1A 		bne	.L21
 2179              	.L20:
  48:../src/pbs.c  ****     sw_delay_ms( PB_KEYDOWN_DELAY );
 2180              		.loc 1 48 0 is_stmt 1
 2181 01a0 1E00A0E3 		mov	r0, #30
 2182 01a4 FEFFFFEB 		bl	sw_delay_ms
  49:../src/pbs.c  **** }
 2183              		.loc 1 49 0
 2184 01a8 0CD04BE2 		sub	sp, fp, #12
 2185 01ac 00689DE8 		ldmfd	sp, {fp, sp, lr}
 2186 01b0 1EFF2FE1 		bx	lr
 2187              	.L23:
 2188              		.align	2
 2189              	.L22:
 2190 01b4 4400D201 		.word	30539844
 2191              		.cfi_endproc
 2192              	.LFE5:
 2194              		.align	2
 2195              		.global	pb_wait_any_keyup
 2197              	pb_wait_any_keyup:
 2198              	.LFB6:
  50:../src/pbs.c  **** 
  51:../src/pbs.c  **** void pb_wait_any_keyup( void )
  52:../src/pbs.c  **** {
 2199              		.loc 1 52 0
 2200              		.cfi_startproc
 2201              		@ Function supports interworking.
 2202              		@ args = 0, pretend = 0, frame = 0
 2203              		@ frame_needed = 1, uses_anonymous_args = 0
 2204 01b8 0DC0A0E1 		mov	ip, sp
 2205              	.LCFI12:
 2206              		.cfi_def_cfa_register 12
 2207 01bc 00D82DE9 		stmfd	sp!, {fp, ip, lr, pc}
 2208 01c0 04B04CE2 		sub	fp, ip, #4
 2209              		.cfi_offset 14, -8
 2210              		.cfi_offset 13, -12
 2211              		.cfi_offset 11, -16
 2212              	.LCFI13:
 2213              		.cfi_def_cfa 11, 4
  53:../src/pbs.c  ****     while( ((PDATG & 0x40) == 0x40) && ((PDATG & 0x80) == 0x80) );
 2214              		.loc 1 53 0
 2215 01c4 0000A0E1 		mov	r0, r0	@ nop
 2216              	.L26:
 2217              		.loc 1 53 0 is_stmt 0 discriminator 1
 2218 01c8 60309FE5 		ldr	r3, .L28
 2219 01cc 003093E5 		ldr	r3, [r3, #0]
 2220 01d0 403003E2 		and	r3, r3, #64
 2221 01d4 000053E3 		cmp	r3, #0
 2222 01d8 0400000A 		beq	.L25
 2223              		.loc 1 53 0 discriminator 2
 2224 01dc 4C309FE5 		ldr	r3, .L28
 2225 01e0 003093E5 		ldr	r3, [r3, #0]
 2226 01e4 803003E2 		and	r3, r3, #128
 2227 01e8 000053E3 		cmp	r3, #0
 2228 01ec F5FFFF1A 		bne	.L26
 2229              	.L25:
  54:../src/pbs.c  ****     sw_delay_ms( PB_KEYUP_DELAY );
 2230              		.loc 1 54 0 is_stmt 1
 2231 01f0 6400A0E3 		mov	r0, #100
 2232 01f4 FEFFFFEB 		bl	sw_delay_ms
  55:../src/pbs.c  ****     while( ((PDATG & 0x40) == 0x0) || ((PDATG & 0x80) == 0x0) );
 2233              		.loc 1 55 0
 2234 01f8 0000A0E1 		mov	r0, r0	@ nop
 2235              	.L27:
 2236              		.loc 1 55 0 is_stmt 0 discriminator 1
 2237 01fc 2C309FE5 		ldr	r3, .L28
 2238 0200 003093E5 		ldr	r3, [r3, #0]
 2239 0204 403003E2 		and	r3, r3, #64
 2240 0208 000053E3 		cmp	r3, #0
 2241 020c FAFFFF0A 		beq	.L27
 2242              		.loc 1 55 0 discriminator 2
 2243 0210 18309FE5 		ldr	r3, .L28
 2244 0214 003093E5 		ldr	r3, [r3, #0]
 2245 0218 803003E2 		and	r3, r3, #128
 2246 021c 000053E3 		cmp	r3, #0
 2247 0220 F5FFFF0A 		beq	.L27
  56:../src/pbs.c  **** }
 2248              		.loc 1 56 0 is_stmt 1
 2249 0224 0CD04BE2 		sub	sp, fp, #12
 2250 0228 00689DE8 		ldmfd	sp, {fp, sp, lr}
 2251 022c 1EFF2FE1 		bx	lr
 2252              	.L29:
 2253              		.align	2
 2254              	.L28:
 2255 0230 4400D201 		.word	30539844
 2256              		.cfi_endproc
 2257              	.LFE6:
 2259              		.align	2
 2260              		.global	pb_getchar
 2262              	pb_getchar:
 2263              	.LFB7:
  57:../src/pbs.c  **** 
  58:../src/pbs.c  **** uint8 pb_getchar( void )
  59:../src/pbs.c  **** {
 2264              		.loc 1 59 0
 2265              		.cfi_startproc
 2266              		@ Function supports interworking.
 2267              		@ args = 0, pretend = 0, frame = 8
 2268              		@ frame_needed = 1, uses_anonymous_args = 0
 2269 0234 0DC0A0E1 		mov	ip, sp
 2270              	.LCFI14:
 2271              		.cfi_def_cfa_register 12
 2272 0238 00D82DE9 		stmfd	sp!, {fp, ip, lr, pc}
 2273 023c 04B04CE2 		sub	fp, ip, #4
 2274              		.cfi_offset 14, -8
 2275              		.cfi_offset 13, -12
 2276              		.cfi_offset 11, -16
 2277              	.LCFI15:
 2278              		.cfi_def_cfa 11, 4
 2279 0240 08D04DE2 		sub	sp, sp, #8
  60:../src/pbs.c  ****     uint8 scancode;
  61:../src/pbs.c  **** 
  62:../src/pbs.c  ****     while( ((PDATG & 0x40) == 0x40) && ((PDATG & 0x80) == 0x80));
 2280              		.loc 1 62 0
 2281 0244 0000A0E1 		mov	r0, r0	@ nop
 2282              	.L32:
 2283              		.loc 1 62 0 is_stmt 0 discriminator 1
 2284 0248 6C309FE5 		ldr	r3, .L34
 2285 024c 003093E5 		ldr	r3, [r3, #0]
 2286 0250 403003E2 		and	r3, r3, #64
 2287 0254 000053E3 		cmp	r3, #0
 2288 0258 0400000A 		beq	.L31
 2289              		.loc 1 62 0 discriminator 2
 2290 025c 58309FE5 		ldr	r3, .L34
 2291 0260 003093E5 		ldr	r3, [r3, #0]
 2292 0264 803003E2 		and	r3, r3, #128
 2293 0268 000053E3 		cmp	r3, #0
 2294 026c F5FFFF1A 		bne	.L32
 2295              	.L31:
  63:../src/pbs.c  ****     sw_delay_ms( PB_KEYDOWN_DELAY );
 2296              		.loc 1 63 0 is_stmt 1
 2297 0270 1E00A0E3 		mov	r0, #30
 2298 0274 FEFFFFEB 		bl	sw_delay_ms
  64:../src/pbs.c  ****     scancode = pb_scan();
 2299              		.loc 1 64 0
 2300 0278 FEFFFFEB 		bl	pb_scan
 2301 027c 0030A0E1 		mov	r3, r0
 2302 0280 0D304BE5 		strb	r3, [fp, #-13]
  65:../src/pbs.c  **** 
  66:../src/pbs.c  ****     while( (scancode & PDATG) == 0 );
 2303              		.loc 1 66 0
 2304 0284 0000A0E1 		mov	r0, r0	@ nop
 2305              	.L33:
 2306              		.loc 1 66 0 is_stmt 0 discriminator 1
 2307 0288 0D205BE5 		ldrb	r2, [fp, #-13]	@ zero_extendqisi2
 2308 028c 28309FE5 		ldr	r3, .L34
 2309 0290 003093E5 		ldr	r3, [r3, #0]
 2310 0294 033002E0 		and	r3, r2, r3
 2311 0298 000053E3 		cmp	r3, #0
 2312 029c F9FFFF0A 		beq	.L33
  67:../src/pbs.c  ****     sw_delay_ms( PB_KEYUP_DELAY );
 2313              		.loc 1 67 0 is_stmt 1
 2314 02a0 6400A0E3 		mov	r0, #100
 2315 02a4 FEFFFFEB 		bl	sw_delay_ms
  68:../src/pbs.c  **** 
  69:../src/pbs.c  ****     return scancode;
 2316              		.loc 1 69 0
 2317 02a8 0D305BE5 		ldrb	r3, [fp, #-13]	@ zero_extendqisi2
  70:../src/pbs.c  **** }
 2318              		.loc 1 70 0
 2319 02ac 0300A0E1 		mov	r0, r3
 2320 02b0 0CD04BE2 		sub	sp, fp, #12
 2321 02b4 00689DE8 		ldmfd	sp, {fp, sp, lr}
 2322 02b8 1EFF2FE1 		bx	lr
 2323              	.L35:
 2324              		.align	2
 2325              	.L34:
 2326 02bc 4400D201 		.word	30539844
 2327              		.cfi_endproc
 2328              	.LFE7:
 2330              		.align	2
 2331              		.global	pb_getchartime
 2333              	pb_getchartime:
 2334              	.LFB8:
  71:../src/pbs.c  **** 
  72:../src/pbs.c  **** uint8 pb_getchartime( uint16 *ms )
  73:../src/pbs.c  **** {
 2335              		.loc 1 73 0
 2336              		.cfi_startproc
 2337              		@ Function supports interworking.
 2338              		@ args = 0, pretend = 0, frame = 16
 2339              		@ frame_needed = 1, uses_anonymous_args = 0
 2340 02c0 0DC0A0E1 		mov	ip, sp
 2341              	.LCFI16:
 2342              		.cfi_def_cfa_register 12
 2343 02c4 00D82DE9 		stmfd	sp!, {fp, ip, lr, pc}
 2344 02c8 04B04CE2 		sub	fp, ip, #4
 2345              		.cfi_offset 14, -8
 2346              		.cfi_offset 13, -12
 2347              		.cfi_offset 11, -16
 2348              	.LCFI17:
 2349              		.cfi_def_cfa 11, 4
 2350 02cc 10D04DE2 		sub	sp, sp, #16
 2351 02d0 18000BE5 		str	r0, [fp, #-24]
  74:../src/pbs.c  ****     uint8 scancode;
  75:../src/pbs.c  ****     
  76:../src/pbs.c  ****     while( ((PDATG & 0x40) == 0x40) && ((PDATG & 0x80) == 0x80) );
 2352              		.loc 1 76 0
 2353 02d4 0000A0E1 		mov	r0, r0	@ nop
 2354              	.L38:
 2355              		.loc 1 76 0 is_stmt 0 discriminator 1
 2356 02d8 98309FE5 		ldr	r3, .L40
 2357 02dc 003093E5 		ldr	r3, [r3, #0]
 2358 02e0 403003E2 		and	r3, r3, #64
 2359 02e4 000053E3 		cmp	r3, #0
 2360 02e8 0400000A 		beq	.L37
 2361              		.loc 1 76 0 discriminator 2
 2362 02ec 84309FE5 		ldr	r3, .L40
 2363 02f0 003093E5 		ldr	r3, [r3, #0]
 2364 02f4 803003E2 		and	r3, r3, #128
 2365 02f8 000053E3 		cmp	r3, #0
 2366 02fc F5FFFF1A 		bne	.L38
 2367              	.L37:
  77:../src/pbs.c  ****     timer3_start();
 2368              		.loc 1 77 0 is_stmt 1
 2369 0300 FEFFFFEB 		bl	timer3_start
  78:../src/pbs.c  ****     sw_delay_ms( PB_KEYDOWN_DELAY );
 2370              		.loc 1 78 0
 2371 0304 1E00A0E3 		mov	r0, #30
 2372 0308 FEFFFFEB 		bl	sw_delay_ms
  79:../src/pbs.c  ****     
  80:../src/pbs.c  ****     scancode = pb_scan();
 2373              		.loc 1 80 0
 2374 030c FEFFFFEB 		bl	pb_scan
 2375 0310 0030A0E1 		mov	r3, r0
 2376 0314 0D304BE5 		strb	r3, [fp, #-13]
  81:../src/pbs.c  ****     
  82:../src/pbs.c  ****     while( (scancode & PDATG) == 0 );
 2377              		.loc 1 82 0
 2378 0318 0000A0E1 		mov	r0, r0	@ nop
 2379              	.L39:
 2380              		.loc 1 82 0 is_stmt 0 discriminator 1
 2381 031c 0D205BE5 		ldrb	r2, [fp, #-13]	@ zero_extendqisi2
 2382 0320 50309FE5 		ldr	r3, .L40
 2383 0324 003093E5 		ldr	r3, [r3, #0]
 2384 0328 033002E0 		and	r3, r2, r3
 2385 032c 000053E3 		cmp	r3, #0
 2386 0330 F9FFFF0A 		beq	.L39
  83:../src/pbs.c  ****     *ms = timer3_stop() / 10;
 2387              		.loc 1 83 0 is_stmt 1
 2388 0334 FEFFFFEB 		bl	timer3_stop
 2389 0338 0030A0E1 		mov	r3, r0
 2390 033c 0320A0E1 		mov	r2, r3
 2391 0340 34309FE5 		ldr	r3, .L40+4
 2392 0344 921383E0 		umull	r1, r3, r2, r3
 2393 0348 A331A0E1 		mov	r3, r3, lsr #3
 2394 034c 0338A0E1 		mov	r3, r3, asl #16
 2395 0350 2328A0E1 		mov	r2, r3, lsr #16
 2396 0354 18301BE5 		ldr	r3, [fp, #-24]
 2397 0358 B020C3E1 		strh	r2, [r3, #0]	@ movhi
  84:../src/pbs.c  ****     sw_delay_ms( PB_KEYUP_DELAY );
 2398              		.loc 1 84 0
 2399 035c 6400A0E3 		mov	r0, #100
 2400 0360 FEFFFFEB 		bl	sw_delay_ms
  85:../src/pbs.c  **** 
  86:../src/pbs.c  ****     return scancode;
 2401              		.loc 1 86 0
 2402 0364 0D305BE5 		ldrb	r3, [fp, #-13]	@ zero_extendqisi2
  87:../src/pbs.c  **** }
 2403              		.loc 1 87 0
 2404 0368 0300A0E1 		mov	r0, r3
 2405 036c 0CD04BE2 		sub	sp, fp, #12
 2406 0370 00689DE8 		ldmfd	sp, {fp, sp, lr}
 2407 0374 1EFF2FE1 		bx	lr
 2408              	.L41:
 2409              		.align	2
 2410              	.L40:
 2411 0378 4400D201 		.word	30539844
 2412 037c CDCCCCCC 		.word	-858993459
 2413              		.cfi_endproc
 2414              	.LFE8:
 2416              		.align	2
 2417              		.global	pb_timeout_getchar
 2419              	pb_timeout_getchar:
 2420              	.LFB9:
  88:../src/pbs.c  **** 
  89:../src/pbs.c  **** uint8 pb_timeout_getchar( uint16 ms )
  90:../src/pbs.c  **** {
 2421              		.loc 1 90 0
 2422              		.cfi_startproc
 2423              		@ Function supports interworking.
 2424              		@ args = 0, pretend = 0, frame = 16
 2425              		@ frame_needed = 1, uses_anonymous_args = 0
 2426 0380 0DC0A0E1 		mov	ip, sp
 2427              	.LCFI18:
 2428              		.cfi_def_cfa_register 12
 2429 0384 00D82DE9 		stmfd	sp!, {fp, ip, lr, pc}
 2430 0388 04B04CE2 		sub	fp, ip, #4
 2431              		.cfi_offset 14, -8
 2432              		.cfi_offset 13, -12
 2433              		.cfi_offset 11, -16
 2434              	.LCFI19:
 2435              		.cfi_def_cfa 11, 4
 2436 038c 10D04DE2 		sub	sp, sp, #16
 2437 0390 0030A0E1 		mov	r3, r0
 2438 0394 B6314BE1 		strh	r3, [fp, #-22]	@ movhi
  91:../src/pbs.c  ****     uint8 scancode;
  92:../src/pbs.c  ****     timer3_start_timeout(ms);
 2439              		.loc 1 92 0
 2440 0398 B6315BE1 		ldrh	r3, [fp, #-22]
 2441 039c 0300A0E1 		mov	r0, r3
 2442 03a0 FEFFFFEB 		bl	timer3_start_timeout
  93:../src/pbs.c  ****     while( timer3_timeout() && ((PDATG & 0x40) == 0x40) && ((PDATG & 0x80) == 0x80) );
 2443              		.loc 1 93 0
 2444 03a4 0000A0E1 		mov	r0, r0	@ nop
 2445              	.L44:
 2446              		.loc 1 93 0 is_stmt 0 discriminator 1
 2447 03a8 FEFFFFEB 		bl	timer3_timeout
 2448 03ac 0030A0E1 		mov	r3, r0
 2449 03b0 000053E3 		cmp	r3, #0
 2450 03b4 0900000A 		beq	.L43
 2451              		.loc 1 93 0 discriminator 2
 2452 03b8 84309FE5 		ldr	r3, .L48
 2453 03bc 003093E5 		ldr	r3, [r3, #0]
 2454 03c0 403003E2 		and	r3, r3, #64
 2455 03c4 000053E3 		cmp	r3, #0
 2456 03c8 0400000A 		beq	.L43
 2457              		.loc 1 93 0 discriminator 1
 2458 03cc 70309FE5 		ldr	r3, .L48
 2459 03d0 003093E5 		ldr	r3, [r3, #0]
 2460 03d4 803003E2 		and	r3, r3, #128
 2461 03d8 000053E3 		cmp	r3, #0
 2462 03dc F1FFFF1A 		bne	.L44
 2463              	.L43:
  94:../src/pbs.c  ****     if( !timer3_timeout())
 2464              		.loc 1 94 0 is_stmt 1
 2465 03e0 FEFFFFEB 		bl	timer3_timeout
 2466 03e4 0030A0E1 		mov	r3, r0
 2467 03e8 000053E3 		cmp	r3, #0
 2468 03ec 0100001A 		bne	.L45
  95:../src/pbs.c  ****         return PB_TIMEOUT;
 2469              		.loc 1 95 0
 2470 03f0 FE30A0E3 		mov	r3, #254
 2471 03f4 0E0000EA 		b	.L46
 2472              	.L45:
  96:../src/pbs.c  ****     else
  97:../src/pbs.c  ****     {
  98:../src/pbs.c  ****         sw_delay_ms( PB_KEYDOWN_DELAY );
 2473              		.loc 1 98 0
 2474 03f8 1E00A0E3 		mov	r0, #30
 2475 03fc FEFFFFEB 		bl	sw_delay_ms
  99:../src/pbs.c  ****         scancode = pb_scan();
 2476              		.loc 1 99 0
 2477 0400 FEFFFFEB 		bl	pb_scan
 2478 0404 0030A0E1 		mov	r3, r0
 2479 0408 0D304BE5 		strb	r3, [fp, #-13]
 100:../src/pbs.c  ****         while( (scancode & PDATG) == 0 );
 2480              		.loc 1 100 0
 2481 040c 0000A0E1 		mov	r0, r0	@ nop
 2482              	.L47:
 2483              		.loc 1 100 0 is_stmt 0 discriminator 1
 2484 0410 0D205BE5 		ldrb	r2, [fp, #-13]	@ zero_extendqisi2
 2485 0414 28309FE5 		ldr	r3, .L48
 2486 0418 003093E5 		ldr	r3, [r3, #0]
 2487 041c 033002E0 		and	r3, r2, r3
 2488 0420 000053E3 		cmp	r3, #0
 2489 0424 F9FFFF0A 		beq	.L47
 101:../src/pbs.c  ****         sw_delay_ms( PB_KEYUP_DELAY );
 2490              		.loc 1 101 0 is_stmt 1
 2491 0428 6400A0E3 		mov	r0, #100
 2492 042c FEFFFFEB 		bl	sw_delay_ms
 102:../src/pbs.c  ****         return scancode;
 2493              		.loc 1 102 0
 2494 0430 0D305BE5 		ldrb	r3, [fp, #-13]	@ zero_extendqisi2
 2495              	.L46:
 103:../src/pbs.c  ****     }
 104:../src/pbs.c  ****     
 105:../src/pbs.c  **** }
 2496              		.loc 1 105 0
 2497 0434 0300A0E1 		mov	r0, r3
 2498 0438 0CD04BE2 		sub	sp, fp, #12
 2499 043c 00689DE8 		ldmfd	sp, {fp, sp, lr}
 2500 0440 1EFF2FE1 		bx	lr
 2501              	.L49:
 2502              		.align	2
 2503              	.L48:
 2504 0444 4400D201 		.word	30539844
 2505              		.cfi_endproc
 2506              	.LFE9:
 2508              		.align	2
 2509              		.global	pbs_open
 2511              	pbs_open:
 2512              	.LFB10:
 106:../src/pbs.c  **** 
 107:../src/pbs.c  **** void pbs_open( void (*isr)(void) )
 108:../src/pbs.c  **** {
 2513              		.loc 1 108 0
 2514              		.cfi_startproc
 2515              		@ Function supports interworking.
 2516              		@ args = 0, pretend = 0, frame = 8
 2517              		@ frame_needed = 1, uses_anonymous_args = 0
 2518 0448 0DC0A0E1 		mov	ip, sp
 2519              	.LCFI20:
 2520              		.cfi_def_cfa_register 12
 2521 044c 00D82DE9 		stmfd	sp!, {fp, ip, lr, pc}
 2522 0450 04B04CE2 		sub	fp, ip, #4
 2523              		.cfi_offset 14, -8
 2524              		.cfi_offset 13, -12
 2525              		.cfi_offset 11, -16
 2526              	.LCFI21:
 2527              		.cfi_def_cfa 11, 4
 2528 0454 08D04DE2 		sub	sp, sp, #8
 2529 0458 10000BE5 		str	r0, [fp, #-16]
 109:../src/pbs.c  ****     pISR_PB   = (uint32) isr;
 2530              		.loc 1 109 0
 2531 045c 3C309FE5 		ldr	r3, .L51
 2532 0460 10201BE5 		ldr	r2, [fp, #-16]
 2533 0464 002083E5 		str	r2, [r3, #0]
 110:../src/pbs.c  ****     EXTINTPND = 0xf;
 2534              		.loc 1 110 0
 2535 0468 34309FE5 		ldr	r3, .L51+4
 2536 046c 0F20A0E3 		mov	r2, #15
 2537 0470 002083E5 		str	r2, [r3, #0]
 111:../src/pbs.c  ****     I_ISPC    = BIT_EINT4567;
 2538              		.loc 1 111 0
 2539 0474 2C309FE5 		ldr	r3, .L51+8
 2540 0478 0226A0E3 		mov	r2, #2097152
 2541 047c 002083E5 		str	r2, [r3, #0]
 112:../src/pbs.c  ****     INTMSK   &= ~(BIT_GLOBAL | BIT_EINT4567);
 2542              		.loc 1 112 0
 2543 0480 24309FE5 		ldr	r3, .L51+12
 2544 0484 20209FE5 		ldr	r2, .L51+12
 2545 0488 002092E5 		ldr	r2, [r2, #0]
 2546 048c 4226C2E3 		bic	r2, r2, #69206016
 2547 0490 002083E5 		str	r2, [r3, #0]
 113:../src/pbs.c  **** }
 2548              		.loc 1 113 0
 2549 0494 0CD04BE2 		sub	sp, fp, #12
 2550 0498 00689DE8 		ldmfd	sp, {fp, sp, lr}
 2551 049c 1EFF2FE1 		bx	lr
 2552              	.L52:
 2553              		.align	2
 2554              	.L51:
 2555 04a0 74FF7F0C 		.word	209715060
 2556 04a4 5400D201 		.word	30539860
 2557 04a8 2400E001 		.word	31457316
 2558 04ac 0C00E001 		.word	31457292
 2559              		.cfi_endproc
 2560              	.LFE10:
 2562              		.align	2
 2563              		.global	pbs_close
 2565              	pbs_close:
 2566              	.LFB11:
 114:../src/pbs.c  **** 
 115:../src/pbs.c  **** void pbs_close( void )
 116:../src/pbs.c  **** {
 2567              		.loc 1 116 0
 2568              		.cfi_startproc
 2569              		@ Function supports interworking.
 2570              		@ args = 0, pretend = 0, frame = 0
 2571              		@ frame_needed = 1, uses_anonymous_args = 0
 2572 04b0 0DC0A0E1 		mov	ip, sp
 2573              	.LCFI22:
 2574              		.cfi_def_cfa_register 12
 2575 04b4 00D82DE9 		stmfd	sp!, {fp, ip, lr, pc}
 2576 04b8 04B04CE2 		sub	fp, ip, #4
 2577              		.cfi_offset 14, -8
 2578              		.cfi_offset 13, -12
 2579              		.cfi_offset 11, -16
 2580              	.LCFI23:
 2581              		.cfi_def_cfa 11, 4
 117:../src/pbs.c  ****     INTMSK  |= BIT_EINT4567;
 2582              		.loc 1 117 0
 2583 04bc 24309FE5 		ldr	r3, .L54
 2584 04c0 20209FE5 		ldr	r2, .L54
 2585 04c4 002092E5 		ldr	r2, [r2, #0]
 2586 04c8 022682E3 		orr	r2, r2, #2097152
 2587 04cc 002083E5 		str	r2, [r3, #0]
 118:../src/pbs.c  ****     pISR_PB  = (uint32) isr_PB_dummy;
 2588              		.loc 1 118 0
 2589 04d0 14309FE5 		ldr	r3, .L54+4
 2590 04d4 14209FE5 		ldr	r2, .L54+8
 2591 04d8 002083E5 		str	r2, [r3, #0]
 119:../src/pbs.c  **** }
 2592              		.loc 1 119 0
 2593 04dc 0CD04BE2 		sub	sp, fp, #12
 2594 04e0 00689DE8 		ldmfd	sp, {fp, sp, lr}
 2595 04e4 1EFF2FE1 		bx	lr
 2596              	.L55:
 2597              		.align	2
 2598              	.L54:
 2599 04e8 0C00E001 		.word	31457292
 2600 04ec 74FF7F0C 		.word	209715060
 2601 04f0 00000000 		.word	isr_PB_dummy
 2602              		.cfi_endproc
 2603              	.LFE11:
 2605              	.Letext0: